target datalayout = "e-m:e-p270:32:32-p271:32:32-p272:64:64-i64:64-i128:128-f80:128-n8:16:32:64-S128"
target triple = "x86_64-pc-linux-gnu"

%struct.ARKodeMemRec = type { ptr, double, ptr, i32, i32, double, double, ptr, i32, double, ptr, i32, i32, ptr, ptr, i32, ptr, ptr, i32, ptr, ptr, ptr, ptr, ptr, ptr, ptr, ptr, ptr, ptr, ptr, ptr, ptr, ptr, ptr, i32, ptr, ptr, i32, ptr, i32, ptr, ptr, ptr, ptr, ptr, ptr, ptr, ptr, ptr, ptr, ptr, ptr, ptr, ptr, ptr, ptr, ptr, ptr, ptr, ptr, ptr, ptr, ptr, ptr, ptr, ptr, i32, ptr, ptr, ptr, ptr, ptr, ptr, ptr, i32, ptr, ptr, ptr, i32, ptr, ptr, ptr, ptr, ptr, ptr, ptr, i32, i32, i32, i32, double, double, double, double, double, double, double, double, double, double, i32, ptr, i64, i32, i32, i32, i32, i64, i64, i32, i64, i64, i64, i64, i64, i64, i64, double, double, double, double, double, i32, double, double, i32, i32, i32, i32, i32, i32, i32, i32, ptr, i32, ptr, ptr, ptr, ptr, i32, i32, i32 }
%struct.ARKodeERKStepMemRec = type { ptr, ptr, i32, i32, i32, ptr, i64, ptr, ptr, i32, double, double, ptr, i32, ptr, ptr }
%struct.ARKodeButcherTableMem = type { i32, i32, i32, ptr, ptr, ptr, ptr }

@.str = private unnamed_addr constant [123 x i8] c"generated/home/dtcxzyw/WorkSpace/Projects/compilers/llvm-opt-benchmark/bench/sundials/sundials/src/arkode/arkode_erkstep.c\00", align 1
@.str.21 = private unnamed_addr constant [33 x i8] c"Time step module memory is NULL.\00", align 1
@__func__.erkStep_CheckButcherTable = private unnamed_addr constant [26 x i8] c"erkStep_CheckButcherTable\00", align 1
@.str.23 = private unnamed_addr constant [12 x i8] c"stages < 1!\00", align 1
@.str.24 = private unnamed_addr constant [18 x i8] c"method order < 1!\00", align 1
@.str.25 = private unnamed_addr constant [21 x i8] c"embedding order < 1!\00", align 1
@.str.26 = private unnamed_addr constant [14 x i8] c"no embedding!\00", align 1
@.str.27 = private unnamed_addr constant [30 x i8] c"Ae Butcher table is implicit!\00", align 1
@.str.28 = private unnamed_addr constant [49 x i8] c"The Butcher table must be at least second order!\00", align 1
@.str.29 = private unnamed_addr constant [42 x i8] c"The Butcher table has a negative b value!\00", align 1

; Function Attrs: nounwind uwtable
define i32 @erkStep_CheckButcherTable(ptr noundef %0) #0 {
  %2 = alloca i32, align 4
  %3 = alloca ptr, align 8
  %4 = alloca i32, align 4
  %5 = alloca i32, align 4
  %6 = alloca i32, align 4
  %7 = alloca ptr, align 8
  %8 = alloca double, align 8
  %9 = alloca i32, align 4
  store ptr %0, ptr %3, align 8, !tbaa !15
  call void @llvm.lifetime.start.p0(i64 4, ptr %4) #8
  call void @llvm.lifetime.start.p0(i64 4, ptr %5) #8
  call void @llvm.lifetime.start.p0(i64 4, ptr %6) #8
  call void @llvm.lifetime.start.p0(i64 8, ptr %7) #8
  call void @llvm.lifetime.start.p0(i64 8, ptr %8) #8
  store double 0x3D719799812DEA11, ptr %8, align 8, !tbaa !7
  %10 = load ptr, ptr %3, align 8, !tbaa !15
  %11 = getelementptr inbounds nuw %struct.ARKodeMemRec, ptr %10, i32 0, i32 19
  %12 = load ptr, ptr %11, align 8, !tbaa !41
  %13 = icmp eq ptr %12, null
  br i1 %13, label %14, label %16

14:                                               ; preds = %1
  %15 = load ptr, ptr %3, align 8, !tbaa !15
  call void (ptr, i32, i32, ptr, ptr, ptr, ...) @arkProcessError(ptr noundef %15, i32 noundef -21, i32 noundef 1019, ptr noundef @__func__.erkStep_CheckButcherTable, ptr noundef @.str, ptr noundef @.str.21)
  store i32 -21, ptr %2, align 4
  store i32 1, ptr %9, align 4
  br label %149

16:                                               ; preds = %1
  %17 = load ptr, ptr %3, align 8, !tbaa !15
  %18 = getelementptr inbounds nuw %struct.ARKodeMemRec, ptr %17, i32 0, i32 19
  %19 = load ptr, ptr %18, align 8, !tbaa !41
  store ptr %19, ptr %7, align 8, !tbaa !17
  %20 = load ptr, ptr %7, align 8, !tbaa !17
  %21 = getelementptr inbounds nuw %struct.ARKodeERKStepMemRec, ptr %20, i32 0, i32 4
  %22 = load i32, ptr %21, align 8, !tbaa !83
  %23 = icmp slt i32 %22, 1
  br i1 %23, label %24, label %26

24:                                               ; preds = %16
  %25 = load ptr, ptr %3, align 8, !tbaa !15
  call void (ptr, i32, i32, ptr, ptr, ptr, ...) @arkProcessError(ptr noundef %25, i32 noundef -41, i32 noundef 1028, ptr noundef @__func__.erkStep_CheckButcherTable, ptr noundef @.str, ptr noundef @.str.23)
  store i32 -41, ptr %2, align 4
  store i32 1, ptr %9, align 4
  br label %149

26:                                               ; preds = %16
  %27 = load ptr, ptr %7, align 8, !tbaa !17
  %28 = getelementptr inbounds nuw %struct.ARKodeERKStepMemRec, ptr %27, i32 0, i32 2
  %29 = load i32, ptr %28, align 8, !tbaa !78
  %30 = icmp slt i32 %29, 1
  br i1 %30, label %31, label %33

31:                                               ; preds = %26
  %32 = load ptr, ptr %3, align 8, !tbaa !15
  call void (ptr, i32, i32, ptr, ptr, ptr, ...) @arkProcessError(ptr noundef %32, i32 noundef -41, i32 noundef 1036, ptr noundef @__func__.erkStep_CheckButcherTable, ptr noundef @.str, ptr noundef @.str.24)
  store i32 -41, ptr %2, align 4
  store i32 1, ptr %9, align 4
  br label %149

33:                                               ; preds = %26
  %34 = load ptr, ptr %7, align 8, !tbaa !17
  %35 = getelementptr inbounds nuw %struct.ARKodeERKStepMemRec, ptr %34, i32 0, i32 3
  %36 = load i32, ptr %35, align 4, !tbaa !81
  %37 = icmp slt i32 %36, 1
  br i1 %37, label %38, label %45

38:                                               ; preds = %33
  %39 = load ptr, ptr %3, align 8, !tbaa !15
  %40 = getelementptr inbounds nuw %struct.ARKodeMemRec, ptr %39, i32 0, i32 100
  %41 = load i32, ptr %40, align 8, !tbaa !65
  %42 = icmp ne i32 %41, 0
  br i1 %42, label %45, label %43

43:                                               ; preds = %38
  %44 = load ptr, ptr %3, align 8, !tbaa !15
  call void (ptr, i32, i32, ptr, ptr, ptr, ...) @arkProcessError(ptr noundef %44, i32 noundef -41, i32 noundef 1044, ptr noundef @__func__.erkStep_CheckButcherTable, ptr noundef @.str, ptr noundef @.str.25)
  store i32 -41, ptr %2, align 4
  store i32 1, ptr %9, align 4
  br label %149

45:                                               ; preds = %38, %33
  %46 = load ptr, ptr %7, align 8, !tbaa !17
  %47 = getelementptr inbounds nuw %struct.ARKodeERKStepMemRec, ptr %46, i32 0, i32 3
  %48 = load i32, ptr %47, align 4, !tbaa !81
  %49 = icmp sgt i32 %48, 0
  br i1 %49, label %50, label %65

50:                                               ; preds = %45
  %51 = load ptr, ptr %3, align 8, !tbaa !15
  %52 = getelementptr inbounds nuw %struct.ARKodeMemRec, ptr %51, i32 0, i32 100
  %53 = load i32, ptr %52, align 8, !tbaa !65
  %54 = icmp ne i32 %53, 0
  br i1 %54, label %65, label %55

55:                                               ; preds = %50
  %56 = load ptr, ptr %7, align 8, !tbaa !17
  %57 = getelementptr inbounds nuw %struct.ARKodeERKStepMemRec, ptr %56, i32 0, i32 5
  %58 = load ptr, ptr %57, align 8, !tbaa !70
  %59 = getelementptr inbounds nuw %struct.ARKodeButcherTableMem, ptr %58, i32 0, i32 6
  %60 = load ptr, ptr %59, align 8, !tbaa !122
  %61 = icmp eq ptr %60, null
  br i1 %61, label %62, label %64

62:                                               ; preds = %55
  %63 = load ptr, ptr %3, align 8, !tbaa !15
  call void (ptr, i32, i32, ptr, ptr, ptr, ...) @arkProcessError(ptr noundef %63, i32 noundef -41, i32 noundef 1054, ptr noundef @__func__.erkStep_CheckButcherTable, ptr noundef @.str, ptr noundef @.str.26)
  store i32 -41, ptr %2, align 4
  store i32 1, ptr %9, align 4
  br label %149

64:                                               ; preds = %55
  br label %65

65:                                               ; preds = %64, %50, %45
  store i32 1, ptr %6, align 4, !tbaa !13
  store i32 0, ptr %4, align 4, !tbaa !13
  br label %66

66:                                               ; preds = %103, %65
  %67 = load i32, ptr %4, align 4, !tbaa !13
  %68 = load ptr, ptr %7, align 8, !tbaa !17
  %69 = getelementptr inbounds nuw %struct.ARKodeERKStepMemRec, ptr %68, i32 0, i32 4
  %70 = load i32, ptr %69, align 8, !tbaa !83
  %71 = icmp slt i32 %67, %70
  br i1 %71, label %72, label %106

72:                                               ; preds = %66
  %73 = load i32, ptr %4, align 4, !tbaa !13
  store i32 %73, ptr %5, align 4, !tbaa !13
  br label %74

74:                                               ; preds = %99, %72
  %75 = load i32, ptr %5, align 4, !tbaa !13
  %76 = load ptr, ptr %7, align 8, !tbaa !17
  %77 = getelementptr inbounds nuw %struct.ARKodeERKStepMemRec, ptr %76, i32 0, i32 4
  %78 = load i32, ptr %77, align 8, !tbaa !83
  %79 = icmp slt i32 %75, %78
  br i1 %79, label %80, label %102

80:                                               ; preds = %74
  %81 = load ptr, ptr %7, align 8, !tbaa !17
  %82 = getelementptr inbounds nuw %struct.ARKodeERKStepMemRec, ptr %81, i32 0, i32 5
  %83 = load ptr, ptr %82, align 8, !tbaa !70
  %84 = getelementptr inbounds nuw %struct.ARKodeButcherTableMem, ptr %83, i32 0, i32 3
  %85 = load ptr, ptr %84, align 8, !tbaa !103
  %86 = load i32, ptr %4, align 4, !tbaa !13
  %87 = sext i32 %86 to i64
  %88 = getelementptr inbounds ptr, ptr %85, i64 %87
  %89 = load ptr, ptr %88, align 8, !tbaa !89
  %90 = load i32, ptr %5, align 4, !tbaa !13
  %91 = sext i32 %90 to i64
  %92 = getelementptr inbounds double, ptr %89, i64 %91
  %93 = load double, ptr %92, align 8, !tbaa !7
  %94 = call double @llvm.fabs.f64(double %93)
  %95 = load double, ptr %8, align 8, !tbaa !7
  %96 = fcmp ogt double %94, %95
  br i1 %96, label %97, label %98

97:                                               ; preds = %80
  store i32 0, ptr %6, align 4, !tbaa !13
  br label %98

98:                                               ; preds = %97, %80
  br label %99

99:                                               ; preds = %98
  %100 = load i32, ptr %5, align 4, !tbaa !13
  %101 = add nsw i32 %100, 1
  store i32 %101, ptr %5, align 4, !tbaa !13
  br label %74

102:                                              ; preds = %74
  br label %103

103:                                              ; preds = %102
  %104 = load i32, ptr %4, align 4, !tbaa !13
  %105 = add nsw i32 %104, 1
  store i32 %105, ptr %4, align 4, !tbaa !13
  br label %66

106:                                              ; preds = %66
  %107 = load i32, ptr %6, align 4, !tbaa !13
  %108 = icmp ne i32 %107, 0
  br i1 %108, label %111, label %109

109:                                              ; preds = %106
  %110 = load ptr, ptr %3, align 8, !tbaa !15
  call void (ptr, i32, i32, ptr, ptr, ptr, ...) @arkProcessError(ptr noundef %110, i32 noundef -41, i32 noundef 1071, ptr noundef @__func__.erkStep_CheckButcherTable, ptr noundef @.str, ptr noundef @.str.27)
  store i32 -41, ptr %2, align 4
  store i32 1, ptr %9, align 4
  br label %149

111:                                              ; preds = %106
  %112 = load ptr, ptr %3, align 8, !tbaa !15
  %113 = getelementptr inbounds nuw %struct.ARKodeMemRec, ptr %112, i32 0, i32 134
  %114 = load i32, ptr %113, align 8, !tbaa !93
  %115 = icmp ne i32 %114, 0
  br i1 %115, label %116, label %148

116:                                              ; preds = %111
  %117 = load ptr, ptr %7, align 8, !tbaa !17
  %118 = getelementptr inbounds nuw %struct.ARKodeERKStepMemRec, ptr %117, i32 0, i32 2
  %119 = load i32, ptr %118, align 8, !tbaa !78
  %120 = icmp slt i32 %119, 2
  br i1 %120, label %121, label %123

121:                                              ; preds = %116
  %122 = load ptr, ptr %3, align 8, !tbaa !15
  call void (ptr, i32, i32, ptr, ptr, ptr, ...) @arkProcessError(ptr noundef %122, i32 noundef -41, i32 noundef 1081, ptr noundef @__func__.erkStep_CheckButcherTable, ptr noundef @.str, ptr noundef @.str.28)
  store i32 -41, ptr %2, align 4
  store i32 1, ptr %9, align 4
  br label %149

123:                                              ; preds = %116
  store i32 0, ptr %4, align 4, !tbaa !13
  br label %124

124:                                              ; preds = %144, %123
  %125 = load i32, ptr %4, align 4, !tbaa !13
  %126 = load ptr, ptr %7, align 8, !tbaa !17
  %127 = getelementptr inbounds nuw %struct.ARKodeERKStepMemRec, ptr %126, i32 0, i32 4
  %128 = load i32, ptr %127, align 8, !tbaa !83
  %129 = icmp slt i32 %125, %128
  br i1 %129, label %130, label %147

130:                                              ; preds = %124
  %131 = load ptr, ptr %7, align 8, !tbaa !17
  %132 = getelementptr inbounds nuw %struct.ARKodeERKStepMemRec, ptr %131, i32 0, i32 5
  %133 = load ptr, ptr %132, align 8, !tbaa !70
  %134 = getelementptr inbounds nuw %struct.ARKodeButcherTableMem, ptr %133, i32 0, i32 5
  %135 = load ptr, ptr %134, align 8, !tbaa !123
  %136 = load i32, ptr %4, align 4, !tbaa !13
  %137 = sext i32 %136 to i64
  %138 = getelementptr inbounds double, ptr %135, i64 %137
  %139 = load double, ptr %138, align 8, !tbaa !7
  %140 = fcmp olt double %139, 0.000000e+00
  br i1 %140, label %141, label %143

141:                                              ; preds = %130
  %142 = load ptr, ptr %3, align 8, !tbaa !15
  call void (ptr, i32, i32, ptr, ptr, ptr, ...) @arkProcessError(ptr noundef %142, i32 noundef -41, i32 noundef 1090, ptr noundef @__func__.erkStep_CheckButcherTable, ptr noundef @.str, ptr noundef @.str.29)
  store i32 -41, ptr %2, align 4
  store i32 1, ptr %9, align 4
  br label %149

143:                                              ; preds = %130
  br label %144

144:                                              ; preds = %143
  %145 = load i32, ptr %4, align 4, !tbaa !13
  %146 = add nsw i32 %145, 1
  store i32 %146, ptr %4, align 4, !tbaa !13
  br label %124

147:                                              ; preds = %124
  br label %148

148:                                              ; preds = %147, %111
  store i32 0, ptr %2, align 4
  store i32 1, ptr %9, align 4
  br label %149

149:                                              ; preds = %148, %141, %121, %109, %62, %43, %31, %24, %14
  call void @llvm.lifetime.end.p0(i64 8, ptr %8) #8
  call void @llvm.lifetime.end.p0(i64 8, ptr %7) #8
  call void @llvm.lifetime.end.p0(i64 4, ptr %6) #8
  call void @llvm.lifetime.end.p0(i64 4, ptr %5) #8
  call void @llvm.lifetime.end.p0(i64 4, ptr %4) #8
  %150 = load i32, ptr %2, align 4
  ret i32 %150
}