; Function Attrs: nounwind uwtable
define range(i32 -41, 1) i32 @erkStep_CheckButcherTable(ptr noundef %0) local_unnamed_addr #0 {
  %2 = getelementptr inbounds nuw i8, ptr %0, i64 136
  %3 = load ptr, ptr %2, align 8, !tbaa !44
  %4 = icmp eq ptr %3, null
  br i1 %4, label %5, label %6

5:                                                ; preds = %1
  tail call void (ptr, i32, i32, ptr, ptr, ptr, ...) @arkProcessError(ptr noundef nonnull %0, i32 noundef -21, i32 noundef 1019, ptr noundef nonnull @__func__.erkStep_CheckButcherTable, ptr noundef nonnull @.str, ptr noundef nonnull @.str.21) #12
  br label %.loopexit

6:                                                ; preds = %1
  %7 = getelementptr inbounds nuw i8, ptr %3, i64 24
  %8 = load i32, ptr %7, align 8, !tbaa !72
  %9 = icmp slt i32 %8, 1
  br i1 %9, label %10, label %11

10:                                               ; preds = %6
  tail call void (ptr, i32, i32, ptr, ptr, ptr, ...) @arkProcessError(ptr noundef nonnull %0, i32 noundef -41, i32 noundef 1028, ptr noundef nonnull @__func__.erkStep_CheckButcherTable, ptr noundef nonnull @.str, ptr noundef nonnull @.str.23) #12
  br label %.loopexit

11:                                               ; preds = %6
  %12 = getelementptr inbounds nuw i8, ptr %3, i64 16
  %13 = load i32, ptr %12, align 8, !tbaa !67
  %14 = icmp slt i32 %13, 1
  br i1 %14, label %15, label %16

15:                                               ; preds = %11
  tail call void (ptr, i32, i32, ptr, ptr, ptr, ...) @arkProcessError(ptr noundef nonnull %0, i32 noundef -41, i32 noundef 1036, ptr noundef nonnull @__func__.erkStep_CheckButcherTable, ptr noundef nonnull @.str, ptr noundef nonnull @.str.24) #12
  br label %.loopexit

16:                                               ; preds = %11
  %17 = getelementptr inbounds nuw i8, ptr %3, i64 20
  %18 = load i32, ptr %17, align 4, !tbaa !70
  %19 = icmp slt i32 %18, 1
  %20 = getelementptr inbounds nuw i8, ptr %0, i64 768
  %21 = load i32, ptr %20, align 8, !tbaa !54
  %.not = icmp eq i32 %21, 0
  br i1 %19, label %22, label %24

22:                                               ; preds = %16
  br i1 %.not, label %23, label %.preheader44.lr.ph

23:                                               ; preds = %22
  tail call void (ptr, i32, i32, ptr, ptr, ptr, ...) @arkProcessError(ptr noundef nonnull %0, i32 noundef -41, i32 noundef 1044, ptr noundef nonnull @__func__.erkStep_CheckButcherTable, ptr noundef nonnull @.str, ptr noundef nonnull @.str.25) #12
  br label %.loopexit

24:                                               ; preds = %16
  br i1 %.not, label %25, label %.preheader44.lr.ph

25:                                               ; preds = %24
  %26 = getelementptr inbounds nuw i8, ptr %3, i64 32
  %27 = load ptr, ptr %26, align 8, !tbaa !59
  %28 = getelementptr inbounds nuw i8, ptr %27, i64 40
  %29 = load ptr, ptr %28, align 8, !tbaa !109
  %30 = icmp eq ptr %29, null
  br i1 %30, label %31, label %.preheader44.lr.ph

31:                                               ; preds = %25
  tail call void (ptr, i32, i32, ptr, ptr, ptr, ...) @arkProcessError(ptr noundef nonnull %0, i32 noundef -41, i32 noundef 1054, ptr noundef nonnull @__func__.erkStep_CheckButcherTable, ptr noundef nonnull @.str, ptr noundef nonnull @.str.26) #12
  br label %.loopexit

.preheader44.lr.ph:                               ; preds = %24, %25, %22
  %32 = getelementptr inbounds nuw i8, ptr %3, i64 32
  %33 = load ptr, ptr %32, align 8, !tbaa !59
  %34 = getelementptr inbounds nuw i8, ptr %33, i64 16
  %35 = load ptr, ptr %34, align 8, !tbaa !97
  %36 = zext nneg i32 %8 to i64
  %wide.trip.count = zext nneg i32 %8 to i64
  br label %.preheader44

.preheader44:                                     ; preds = %.preheader44.lr.ph, %45
  %indvars.iv = phi i64 [ 0, %.preheader44.lr.ph ], [ %indvars.iv.next, %45 ]
  %.03747 = phi i32 [ 1, %.preheader44.lr.ph ], [ %.2, %45 ]
  %37 = getelementptr inbounds nuw ptr, ptr %35, i64 %indvars.iv
  %38 = load ptr, ptr %37, align 8, !tbaa !98
  br label %39

39:                                               ; preds = %.preheader44, %39
  %indvars.iv50 = phi i64 [ %indvars.iv, %.preheader44 ], [ %indvars.iv.next51, %39 ]
  %.13846 = phi i32 [ %.03747, %.preheader44 ], [ %.2, %39 ]
  %40 = getelementptr inbounds nuw double, ptr %38, i64 %indvars.iv50
  %41 = load double, ptr %40, align 8, !tbaa !81
  %42 = tail call double @llvm.fabs.f64(double %41)
  %43 = fcmp ogt double %42, 0x3D719799812DEA11
  %.2 = select i1 %43, i32 0, i32 %.13846
  %indvars.iv.next51 = add nuw nsw i64 %indvars.iv50, 1
  %44 = icmp samesign ult i64 %indvars.iv.next51, %36
  br i1 %44, label %39, label %45

45:                                               ; preds = %39
  %indvars.iv.next = add nuw nsw i64 %indvars.iv, 1
  %exitcond.not = icmp eq i64 %indvars.iv.next, %wide.trip.count
  br i1 %exitcond.not, label %._crit_edge, label %.preheader44

._crit_edge:                                      ; preds = %45
  %.not42 = icmp eq i32 %.2, 0
  br i1 %.not42, label %46, label %47

46:                                               ; preds = %._crit_edge
  tail call void (ptr, i32, i32, ptr, ptr, ptr, ...) @arkProcessError(ptr noundef %0, i32 noundef -41, i32 noundef 1071, ptr noundef nonnull @__func__.erkStep_CheckButcherTable, ptr noundef nonnull @.str, ptr noundef nonnull @.str.27) #12
  br label %.loopexit

47:                                               ; preds = %._crit_edge
  %48 = getelementptr inbounds nuw i8, ptr %0, i64 992
  %49 = load i32, ptr %48, align 8, !tbaa !88
  %.not43 = icmp eq i32 %49, 0
  br i1 %.not43, label %.loopexit, label %50

50:                                               ; preds = %47
  %51 = icmp eq i32 %13, 1
  br i1 %51, label %56, label %.lr.ph

.lr.ph:                                           ; preds = %50
  %52 = getelementptr inbounds nuw i8, ptr %3, i64 32
  %53 = load ptr, ptr %52, align 8, !tbaa !59
  %54 = getelementptr inbounds nuw i8, ptr %53, i64 32
  %55 = load ptr, ptr %54, align 8, !tbaa !110
  %smax57 = tail call i32 @llvm.smax.i32(i32 %8, i32 1)
  %wide.trip.count58 = zext nneg i32 %smax57 to i64
  br label %58

56:                                               ; preds = %50
  tail call void (ptr, i32, i32, ptr, ptr, ptr, ...) @arkProcessError(ptr noundef nonnull %0, i32 noundef -41, i32 noundef 1081, ptr noundef nonnull @__func__.erkStep_CheckButcherTable, ptr noundef nonnull @.str, ptr noundef nonnull @.str.28) #12
  br label %.loopexit

57:                                               ; preds = %58
  %indvars.iv.next55 = add nuw nsw i64 %indvars.iv54, 1
  %exitcond59.not = icmp eq i64 %indvars.iv.next55, %wide.trip.count58
  br i1 %exitcond59.not, label %.loopexit, label %58

58:                                               ; preds = %.lr.ph, %57
  %indvars.iv54 = phi i64 [ 0, %.lr.ph ], [ %indvars.iv.next55, %57 ]
  %59 = getelementptr inbounds nuw double, ptr %55, i64 %indvars.iv54
  %60 = load double, ptr %59, align 8, !tbaa !81
  %61 = fcmp olt double %60, 0.000000e+00
  br i1 %61, label %62, label %57

62:                                               ; preds = %58
  tail call void (ptr, i32, i32, ptr, ptr, ptr, ...) @arkProcessError(ptr noundef %0, i32 noundef -41, i32 noundef 1090, ptr noundef nonnull @__func__.erkStep_CheckButcherTable, ptr noundef nonnull @.str, ptr noundef nonnull @.str.29) #12
  br label %.loopexit

.loopexit:                                        ; preds = %57, %47, %62, %56, %46, %31, %23, %15, %10, %5
  %.0 = phi i32 [ -21, %5 ], [ -41, %10 ], [ -41, %15 ], [ -41, %56 ], [ -41, %62 ], [ -41, %46 ], [ -41, %31 ], [ -41, %23 ], [ 0, %47 ], [ 0, %57 ]
  ret i32 %.0
}